target datalayout = "e-m:e-p270:32:32-p271:32:32-p272:64:64-i64:64-i128:128-f80:128-n8:16:32:64-S128"
target triple = "x86_64-pc-linux-gnu"

@stderr = external global ptr, align 8
@.str.29 = private unnamed_addr constant [50 x i8] c"Usage: %s <options> gv file with 2D coordinates.\0A\00", align 1
@.str.30 = private unnamed_addr constant [112 x i8] c"Find a color assignment of the edges, such that edges that cross at small angle have as different as possible.\0A\00", align 1
@.str.31 = private unnamed_addr constant [15 x i8] c"Options are: \0A\00", align 1
@.str.32 = private unnamed_addr constant [141 x i8] c" --accuracy=e      : accuracy with which to find the maximally different coloring for each node with regard to its neighbors. Default 0.01.\0A\00", align 1
@.str.33 = private unnamed_addr constant [115 x i8] c" --angle=a         : if edge crossing is less than that angle a, then make the edge colors different. Default 15.\0A\00", align 1
@.str.34 = private unnamed_addr constant [142 x i8] c" --random_seed=s   : random seed to use. s must be an integer. If s is negative, we do -s iterations with different seeds and pick the best.\0A\00", align 1
@.str.35 = private unnamed_addr constant [94 x i8] c" --color_scheme=c  : palette used. The string c should be \22rgb\22, \22gray\22, \22lab\22 (default); or\0A\00", align 1
@.str.36 = private unnamed_addr constant [90 x i8] c"       a comma-separated list of RGB colors in hex (e.g., \22#ff0000,#aabbed,#eeffaa\22); or\0A\00", align 1
@.str.37 = private unnamed_addr constant [123 x i8] c"       a string specifying a Brewer color scheme (e.g., \22accent7\22; see https://graphviz.org/doc/info/colors.html#brewer).\0A\00", align 1
@.str.38 = private unnamed_addr constant [135 x i8] c" --lightness=l1,l2 : only applied for LAB color scheme: l1 must be integer >=0, l2 integer <=100, and l1 <=l2. By default we use 0,70\0A\00", align 1
@.str.39 = private unnamed_addr constant [135 x i8] c" --share_endpoint  :  if this option is specified, edges that shares an end point are not considered in conflict if they are close to\0A\00", align 1
@.str.40 = private unnamed_addr constant [86 x i8] c"       parallel but is on the opposite ends of the shared point (around 180 degree).\0A\00", align 1
@.str.41 = private unnamed_addr constant [29 x i8] c" -v               : verbose\0A\00", align 1
@.str.42 = private unnamed_addr constant [58 x i8] c" -o fname         :  write output to file fname (stdout)\0A\00", align 1

; Function Attrs: nounwind uwtable
define internal void @usage(ptr noundef %0, i32 noundef %1) #0 {
  %3 = alloca ptr, align 8
  %4 = alloca i32, align 4
  store ptr %0, ptr %3, align 8, !tbaa !11
  store i32 %1, ptr %4, align 4, !tbaa !4
  %5 = load ptr, ptr @stderr, align 8, !tbaa !16
  %6 = load ptr, ptr %3, align 8, !tbaa !11
  %7 = call i32 (ptr, ptr, ...) @fprintf(ptr noundef %5, ptr noundef @.str.29, ptr noundef %6) #9
  %8 = load ptr, ptr @stderr, align 8, !tbaa !16
  %9 = call i32 (ptr, ptr, ...) @fprintf(ptr noundef %8, ptr noundef @.str.30) #9
  %10 = load ptr, ptr @stderr, align 8, !tbaa !16
  %11 = call i32 (ptr, ptr, ...) @fprintf(ptr noundef %10, ptr noundef @.str.31) #9
  %12 = load ptr, ptr @stderr, align 8, !tbaa !16
  %13 = call i32 (ptr, ptr, ...) @fprintf(ptr noundef %12, ptr noundef @.str.32) #9
  %14 = load ptr, ptr @stderr, align 8, !tbaa !16
  %15 = call i32 (ptr, ptr, ...) @fprintf(ptr noundef %14, ptr noundef @.str.33) #9
  %16 = load ptr, ptr @stderr, align 8, !tbaa !16
  %17 = call i32 (ptr, ptr, ...) @fprintf(ptr noundef %16, ptr noundef @.str.34) #9
  %18 = load ptr, ptr @stderr, align 8, !tbaa !16
  %19 = call i32 (ptr, ptr, ...) @fprintf(ptr noundef %18, ptr noundef @.str.35) #9
  %20 = load ptr, ptr @stderr, align 8, !tbaa !16
  %21 = call i32 (ptr, ptr, ...) @fprintf(ptr noundef %20, ptr noundef @.str.36) #9
  %22 = load ptr, ptr @stderr, align 8, !tbaa !16
  %23 = call i32 (ptr, ptr, ...) @fprintf(ptr noundef %22, ptr noundef @.str.37) #9
  %24 = load ptr, ptr @stderr, align 8, !tbaa !16
  %25 = call i32 (ptr, ptr, ...) @fprintf(ptr noundef %24, ptr noundef @.str.38) #9
  %26 = load ptr, ptr @stderr, align 8, !tbaa !16
  %27 = call i32 (ptr, ptr, ...) @fprintf(ptr noundef %26, ptr noundef @.str.39) #9
  %28 = load ptr, ptr @stderr, align 8, !tbaa !16
  %29 = call i32 (ptr, ptr, ...) @fprintf(ptr noundef %28, ptr noundef @.str.40) #9
  %30 = load ptr, ptr @stderr, align 8, !tbaa !16
  %31 = call i32 (ptr, ptr, ...) @fprintf(ptr noundef %30, ptr noundef @.str.41) #9
  %32 = load ptr, ptr @stderr, align 8, !tbaa !16
  %33 = call i32 (ptr, ptr, ...) @fprintf(ptr noundef %32, ptr noundef @.str.42) #9
  %34 = load i32, ptr %4, align 4, !tbaa !4
  call void @graphviz_exit(i32 noundef %34) #11
  unreachable
}