; Function Attrs: cold nofree noreturn nounwind uwtable
define internal fastcc void @usage(ptr noundef %0, i32 noundef range(i32 0, 2) %1) unnamed_addr #6 {
  %3 = load ptr, ptr @stderr, align 8, !tbaa !9
  %4 = tail call i32 (ptr, ptr, ...) @fprintf(ptr noundef %3, ptr noundef nonnull @.str.29, ptr noundef %0) #13
  %5 = load ptr, ptr @stderr, align 8, !tbaa !9
  %6 = tail call i64 @fwrite(ptr nonnull @.str.30, i64 111, i64 1, ptr %5) #14
  %7 = load ptr, ptr @stderr, align 8, !tbaa !9
  %8 = tail call i64 @fwrite(ptr nonnull @.str.31, i64 14, i64 1, ptr %7) #14
  %9 = load ptr, ptr @stderr, align 8, !tbaa !9
  %10 = tail call i64 @fwrite(ptr nonnull @.str.32, i64 140, i64 1, ptr %9) #14
  %11 = load ptr, ptr @stderr, align 8, !tbaa !9
  %12 = tail call i64 @fwrite(ptr nonnull @.str.33, i64 114, i64 1, ptr %11) #14
  %13 = load ptr, ptr @stderr, align 8, !tbaa !9
  %14 = tail call i64 @fwrite(ptr nonnull @.str.34, i64 141, i64 1, ptr %13) #14
  %15 = load ptr, ptr @stderr, align 8, !tbaa !9
  %16 = tail call i64 @fwrite(ptr nonnull @.str.35, i64 93, i64 1, ptr %15) #14
  %17 = load ptr, ptr @stderr, align 8, !tbaa !9
  %18 = tail call i64 @fwrite(ptr nonnull @.str.36, i64 89, i64 1, ptr %17) #14
  %19 = load ptr, ptr @stderr, align 8, !tbaa !9
  %20 = tail call i64 @fwrite(ptr nonnull @.str.37, i64 122, i64 1, ptr %19) #14
  %21 = load ptr, ptr @stderr, align 8, !tbaa !9
  %22 = tail call i64 @fwrite(ptr nonnull @.str.38, i64 134, i64 1, ptr %21) #14
  %23 = load ptr, ptr @stderr, align 8, !tbaa !9
  %24 = tail call i64 @fwrite(ptr nonnull @.str.39, i64 134, i64 1, ptr %23) #14
  %25 = load ptr, ptr @stderr, align 8, !tbaa !9
  %26 = tail call i64 @fwrite(ptr nonnull @.str.40, i64 85, i64 1, ptr %25) #14
  %27 = load ptr, ptr @stderr, align 8, !tbaa !9
  %28 = tail call i64 @fwrite(ptr nonnull @.str.41, i64 28, i64 1, ptr %27) #14
  %29 = load ptr, ptr @stderr, align 8, !tbaa !9
  %30 = tail call i64 @fwrite(ptr nonnull @.str.42, i64 57, i64 1, ptr %29) #14
  tail call fastcc void @graphviz_exit(i32 noundef %1) #15
  unreachable
}